target datalayout = "e-m:e-p270:32:32-p271:32:32-p272:64:64-i64:64-i128:128-f80:128-n8:16:32:64-S128"
target triple = "x86_64-pc-linux-gnu"

%struct.redisServer = type { i32, i64, ptr, ptr, ptr, i32, i32, i32, i32, i32, ptr, ptr, ptr, ptr, ptr, i32, i32, i32, i32, i64, i32, i32, i32, i32, ptr, i32, i32, [41 x i8], i32, i64, i32, i32, i32, ptr, ptr, i32, i32, i64, ptr, ptr, ptr, ptr, [2 x i32], i32, i32, i32, i32, i32, i32, [16 x ptr], i32, ptr, ptr, i32, [8 x %struct.connListener], i32, %struct.connListener, ptr, ptr, ptr, ptr, ptr, ptr, ptr, ptr, ptr, ptr, i32, ptr, i32, ptr, [3 x %struct.pause_event], [256 x i8], ptr, i64, i32, i32, [128 x i32], i32, i32, i64, i32, i32, i32, i32, i32, i64, i64, i64, i64, i64, i64, i64, i64, i64, i64, double, i64, i64, i64, i64, i64, i64, i64, i64, i64, i64, i64, i64, i64, i64, i64, i64, i64, i64, i64, i64, i64, double, i64, i64, i64, i64, i64, ptr, i64, i64, i64, %struct.malloc_stats, i64, i64, i64, i64, i64, i64, i64, i64, i64, i64, i64, i64, double, [4 x i64], i64, i64, i64, i64, [128 x i64], [128 x i64], i64, i64, [7 x %struct.anon], i64, i64, i64, i64, i64, i64, [4 x %struct.durationStats], i32, i32, i32, i32, i32, i32, i32, i32, i32, i32, i32, i32, i64, i32, i32, i32, i32, i64, i64, i32, i32, i32, i32, i32, ptr, [3 x %struct.clientBufferLimitsConfig], i32, i32, i32, ptr, i32, i32, i32, i32, i32, i32, ptr, ptr, i32, i32, i64, i64, i64, i64, i64, i32, i32, ptr, i32, i32, i64, i64, i64, i64, i64, i32, i32, i64, i32, i32, i32, i32, i32, i32, i32, i32, ptr, i32, i64, i64, i64, i64, i32, ptr, i32, ptr, i32, i32, i32, i64, i64, i64, i64, i32, i32, i32, i32, i32, i32, ptr, i32, i32, ptr, i32, i32, i32, [2 x i32], i32, %struct.redisOpArray, i32, ptr, i32, ptr, i32, i32, i32, i32, i32, i32, i32, [41 x i8], [41 x i8], i64, i64, i64, i64, i32, i32, ptr, i64, i64, %struct.replDataBuf, i64, i64, i32, i32, i32, i32, i32, i32, i32, i32, i32, i64, ptr, i64, ptr, ptr, ptr, i32, i32, ptr, ptr, i32, i32, i32, i64, i64, i64, i64, ptr, ptr, i32, ptr, i64, i32, i32, i32, i64, i32, i32, i32, i32, ptr, i32, i32, [41 x i8], i64, i32, ptr, i32, i32, i64, i64, i32, i32, i32, i32, i32, i64, [3 x i32], i32, i32, i32, [10 x i32], ptr, ptr, i32, i64, ptr, ptr, i32, i32, i32, i32, i64, i64, i64, i64, i64, i64, i64, i64, i64, i64, i32, i32, i64, i64, i32, i64, i64, i64, i64, i64, ptr, ptr, i32, ptr, i32, i32, i32, i32, i64, i64, ptr, ptr, i32, i32, i32, i32, i32, ptr, ptr, ptr, i32, i32, i32, i32, i32, i32, i32, i64, i32, i32, i64, i32, i32, i32, i32, i32, i32, i32, i64, ptr, ptr, i64, ptr, i32, %struct.aclInfo, i32, i64, i32, i32, i32, %struct.redisTLSContextConfig, ptr, ptr, ptr, ptr, ptr, i64, i32, ptr, i32, i32, i32, i64, i32, ptr }
%struct.connListener = type { [16 x i32], i32, ptr, i32, i32, ptr, ptr }
%struct.pause_event = type { i32, i64 }
%struct.malloc_stats = type { i64, i64, i64, i64, i64, i64, i64, i64, i64, i64, i64 }
%struct.anon = type { i64, i64, [16 x i64], i32 }
%struct.durationStats = type { i64, i64, i64 }
%struct.clientBufferLimitsConfig = type { i64, i64, i64 }
%struct.redisOpArray = type { ptr, i32, i32 }
%struct.replDataBuf = type { ptr, i64, i64, i64, i64 }
%struct.aclInfo = type { i64, i64, i64, i64 }
%struct.redisTLSContextConfig = type { ptr, ptr, ptr, ptr, ptr, ptr, ptr, ptr, ptr, ptr, ptr, ptr, i32, i32, i32, i32 }
%struct.ConnectionType = type { ptr, ptr, ptr, ptr, ptr, ptr, ptr, ptr, ptr, ptr, ptr, ptr, ptr, ptr, ptr, ptr, ptr, ptr, ptr, ptr, ptr, ptr, ptr, ptr, ptr, ptr, ptr, ptr, ptr, ptr }

@server = external global %struct.redisServer, align 8
@.str.10 = private unnamed_addr constant [19 x i8] c"listener%i:name=%s\00", align 1
@.str.11 = private unnamed_addr constant [9 x i8] c",bind=%s\00", align 1
@.str.12 = private unnamed_addr constant [9 x i8] c",port=%i\00", align 1
@.str.13 = private unnamed_addr constant [3 x i8] c"\0D\0A\00", align 1

; Function Attrs: nounwind uwtable
define dso_local ptr @getListensInfoString(ptr noundef %0) #0 {
  %2 = alloca ptr, align 8
  %3 = alloca i32, align 4
  %4 = alloca i32, align 4
  %5 = alloca ptr, align 8
  %6 = alloca i32, align 4
  store ptr %0, ptr %2, align 8, !tbaa !12
  call void @llvm.lifetime.start.p0(i64 4, ptr %3) #6
  store i32 0, ptr %3, align 4, !tbaa !14
  br label %7

7:                                                ; preds = %67, %1
  %8 = load i32, ptr %3, align 4, !tbaa !14
  %9 = icmp slt i32 %8, 8
  br i1 %9, label %11, label %10

10:                                               ; preds = %7
  store i32 2, ptr %4, align 4
  call void @llvm.lifetime.end.p0(i64 4, ptr %3) #6
  br label %70

11:                                               ; preds = %7
  call void @llvm.lifetime.start.p0(i64 8, ptr %5) #6
  %12 = load i32, ptr %3, align 4, !tbaa !14
  %13 = sext i32 %12 to i64
  %14 = getelementptr inbounds [8 x %struct.connListener], ptr getelementptr inbounds nuw (%struct.redisServer, ptr @server, i32 0, i32 54), i64 0, i64 %13
  store ptr %14, ptr %5, align 8, !tbaa !55
  %15 = load ptr, ptr %5, align 8, !tbaa !55
  %16 = getelementptr inbounds nuw %struct.connListener, ptr %15, i32 0, i32 5
  %17 = load ptr, ptr %16, align 8, !tbaa !57
  %18 = icmp eq ptr %17, null
  br i1 %18, label %19, label %20

19:                                               ; preds = %11
  store i32 4, ptr %4, align 4
  br label %64

20:                                               ; preds = %11
  %21 = load ptr, ptr %2, align 8, !tbaa !12
  %22 = load i32, ptr %3, align 4, !tbaa !14
  %23 = load ptr, ptr %5, align 8, !tbaa !55
  %24 = getelementptr inbounds nuw %struct.connListener, ptr %23, i32 0, i32 5
  %25 = load ptr, ptr %24, align 8, !tbaa !57
  %26 = getelementptr inbounds nuw %struct.ConnectionType, ptr %25, i32 0, i32 0
  %27 = load ptr, ptr %26, align 8, !tbaa !10
  %28 = call ptr %27(ptr noundef null)
  %29 = call ptr (ptr, ptr, ...) @sdscatfmt(ptr noundef %21, ptr noundef @.str.10, i32 noundef %22, ptr noundef %28)
  store ptr %29, ptr %2, align 8, !tbaa !12
  call void @llvm.lifetime.start.p0(i64 4, ptr %6) #6
  store i32 0, ptr %6, align 4, !tbaa !14
  br label %30

30:                                               ; preds = %47, %20
  %31 = load i32, ptr %6, align 4, !tbaa !14
  %32 = load ptr, ptr %5, align 8, !tbaa !55
  %33 = getelementptr inbounds nuw %struct.connListener, ptr %32, i32 0, i32 1
  %34 = load i32, ptr %33, align 8, !tbaa !58
  %35 = icmp slt i32 %31, %34
  br i1 %35, label %37, label %36

36:                                               ; preds = %30
  store i32 5, ptr %4, align 4
  call void @llvm.lifetime.end.p0(i64 4, ptr %6) #6
  br label %50

37:                                               ; preds = %30
  %38 = load ptr, ptr %2, align 8, !tbaa !12
  %39 = load ptr, ptr %5, align 8, !tbaa !55
  %40 = getelementptr inbounds nuw %struct.connListener, ptr %39, i32 0, i32 2
  %41 = load ptr, ptr %40, align 8, !tbaa !59
  %42 = load i32, ptr %6, align 4, !tbaa !14
  %43 = sext i32 %42 to i64
  %44 = getelementptr inbounds ptr, ptr %41, i64 %43
  %45 = load ptr, ptr %44, align 8, !tbaa !12
  %46 = call ptr (ptr, ptr, ...) @sdscatfmt(ptr noundef %38, ptr noundef @.str.11, ptr noundef %45)
  store ptr %46, ptr %2, align 8, !tbaa !12
  br label %47

47:                                               ; preds = %37
  %48 = load i32, ptr %6, align 4, !tbaa !14
  %49 = add nsw i32 %48, 1
  store i32 %49, ptr %6, align 4, !tbaa !14
  br label %30, !llvm.loop !60

50:                                               ; preds = %36
  %51 = load ptr, ptr %5, align 8, !tbaa !55
  %52 = getelementptr inbounds nuw %struct.connListener, ptr %51, i32 0, i32 4
  %53 = load i32, ptr %52, align 4, !tbaa !61
  %54 = icmp ne i32 %53, 0
  br i1 %54, label %55, label %61

55:                                               ; preds = %50
  %56 = load ptr, ptr %2, align 8, !tbaa !12
  %57 = load ptr, ptr %5, align 8, !tbaa !55
  %58 = getelementptr inbounds nuw %struct.connListener, ptr %57, i32 0, i32 4
  %59 = load i32, ptr %58, align 4, !tbaa !61
  %60 = call ptr (ptr, ptr, ...) @sdscatfmt(ptr noundef %56, ptr noundef @.str.12, i32 noundef %59)
  store ptr %60, ptr %2, align 8, !tbaa !12
  br label %61

61:                                               ; preds = %55, %50
  %62 = load ptr, ptr %2, align 8, !tbaa !12
  %63 = call ptr (ptr, ptr, ...) @sdscatfmt(ptr noundef %62, ptr noundef @.str.13)
  store ptr %63, ptr %2, align 8, !tbaa !12
  store i32 0, ptr %4, align 4
  br label %64

64:                                               ; preds = %61, %19
  call void @llvm.lifetime.end.p0(i64 8, ptr %5) #6
  %65 = load i32, ptr %4, align 4
  switch i32 %65, label %72 [
    i32 0, label %66
    i32 4, label %67
  ]

66:                                               ; preds = %64
  br label %67

67:                                               ; preds = %66, %64
  %68 = load i32, ptr %3, align 4, !tbaa !14
  %69 = add nsw i32 %68, 1
  store i32 %69, ptr %3, align 4, !tbaa !14
  br label %7, !llvm.loop !62

70:                                               ; preds = %10
  %71 = load ptr, ptr %2, align 8, !tbaa !12
  ret ptr %71

72:                                               ; preds = %64
  unreachable
}