; Function Attrs: nounwind uwtable
define dso_local ptr @getListensInfoString(ptr noundef %0) local_unnamed_addr #0 {
  br label %3

2:                                                ; preds = %31
  ret ptr %.1

3:                                                ; preds = %1, %31
  %indvars.iv26 = phi i64 [ 0, %1 ], [ %indvars.iv.next27, %31 ]
  %.01724 = phi ptr [ %0, %1 ], [ %.1, %31 ]
  %4 = getelementptr inbounds nuw [8 x %struct.connListener], ptr getelementptr inbounds nuw (i8, ptr @server, i64 488), i64 0, i64 %indvars.iv26
  %5 = getelementptr inbounds nuw i8, ptr %4, i64 88
  %6 = load ptr, ptr %5, align 8, !tbaa !53
  %7 = icmp eq ptr %6, null
  br i1 %7, label %31, label %8

8:                                                ; preds = %3
  %9 = load ptr, ptr %6, align 8, !tbaa !5
  %10 = tail call ptr %9(ptr noundef null) #4
  %11 = trunc nuw nsw i64 %indvars.iv26 to i32
  %12 = tail call ptr (ptr, ptr, ...) @sdscatfmt(ptr noundef %.01724, ptr noundef nonnull @.str.10, i32 noundef %11, ptr noundef %10) #4
  %13 = getelementptr inbounds nuw i8, ptr %4, i64 64
  %14 = load i32, ptr %13, align 8, !tbaa !54
  %15 = icmp sgt i32 %14, 0
  br i1 %15, label %.lr.ph, label %._crit_edge

.lr.ph:                                           ; preds = %8
  %16 = getelementptr inbounds nuw i8, ptr %4, i64 72
  br label %19

._crit_edge:                                      ; preds = %19, %8
  %.2.lcssa = phi ptr [ %12, %8 ], [ %23, %19 ]
  %17 = getelementptr inbounds nuw i8, ptr %4, i64 84
  %18 = load i32, ptr %17, align 4, !tbaa !55
  %.not = icmp eq i32 %18, 0
  br i1 %.not, label %29, label %27

19:                                               ; preds = %.lr.ph, %19
  %indvars.iv = phi i64 [ 0, %.lr.ph ], [ %indvars.iv.next, %19 ]
  %.221 = phi ptr [ %12, %.lr.ph ], [ %23, %19 ]
  %20 = load ptr, ptr %16, align 8, !tbaa !56
  %21 = getelementptr inbounds nuw ptr, ptr %20, i64 %indvars.iv
  %22 = load ptr, ptr %21, align 8, !tbaa !57
  %23 = tail call ptr (ptr, ptr, ...) @sdscatfmt(ptr noundef %.221, ptr noundef nonnull @.str.11, ptr noundef %22) #4
  %indvars.iv.next = add nuw nsw i64 %indvars.iv, 1
  %24 = load i32, ptr %13, align 8, !tbaa !54
  %25 = sext i32 %24 to i64
  %26 = icmp slt i64 %indvars.iv.next, %25
  br i1 %26, label %19, label %._crit_edge, !llvm.loop !58

27:                                               ; preds = %._crit_edge
  %28 = tail call ptr (ptr, ptr, ...) @sdscatfmt(ptr noundef %.2.lcssa, ptr noundef nonnull @.str.12, i32 noundef %18) #4
  br label %29

29:                                               ; preds = %27, %._crit_edge
  %.3 = phi ptr [ %28, %27 ], [ %.2.lcssa, %._crit_edge ]
  %30 = tail call ptr (ptr, ptr, ...) @sdscatfmt(ptr noundef %.3, ptr noundef nonnull @.str.13) #4
  br label %31

31:                                               ; preds = %3, %29
  %.1 = phi ptr [ %30, %29 ], [ %.01724, %3 ]
  %indvars.iv.next27 = add nuw nsw i64 %indvars.iv26, 1
  %exitcond.not = icmp eq i64 %indvars.iv.next27, 8
  br i1 %exitcond.not, label %2, label %3, !llvm.loop !59
}